; Function Attrs: mustprogress uwtable
define void @_ZN3gmx24CommandLineModuleManager12addHelpTopicESt10unique_ptrINS_10IHelpTopicESt14default_deleteIS2_EE(ptr nocapture noundef nonnull readonly align 8 dereferenceable(8) %0, ptr nocapture noundef %1) local_unnamed_addr #0 align 2 personality ptr @__gxx_personality_v0 {
  %3 = alloca %"class.std::unique_ptr.50", align 8
  %4 = load ptr, ptr %0, align 8
  tail call void @_ZN3gmx24CommandLineModuleManager4Impl22ensureHelpModuleExistsEv(ptr noundef nonnull align 8 dereferenceable(129) %4)
  %5 = load ptr, ptr %0, align 8
  %6 = getelementptr inbounds i8, ptr %5, i64 112
  %7 = load ptr, ptr %6, align 8
  %8 = load i64, ptr %1, align 8
  store i64 %8, ptr %3, align 8
  store ptr null, ptr %1, align 8
  invoke void @_ZN3gmx21CommandLineHelpModule8addTopicESt10unique_ptrINS_10IHelpTopicESt14default_deleteIS2_EEb(ptr noundef nonnull align 8 dereferenceable(16) %7, ptr noundef nonnull %3, i1 noundef zeroext true)
          to label %9 unwind label %14

9:                                                ; preds = %2
  %10 = load ptr, ptr %3, align 8
  %.not.i = icmp eq ptr %10, null
  br i1 %.not.i, label %_ZNSt10unique_ptrIN3gmx10IHelpTopicESt14default_deleteIS1_EED2Ev.exit, label %_ZNKSt14default_deleteIN3gmx10IHelpTopicEEclEPS1_.exit.i

_ZNKSt14default_deleteIN3gmx10IHelpTopicEEclEPS1_.exit.i: ; preds = %9
  %11 = load ptr, ptr %10, align 8
  %12 = getelementptr inbounds i8, ptr %11, i64 8
  %13 = load ptr, ptr %12, align 8
  call void %13(ptr noundef nonnull align 8 dereferenceable(8) %10) #21
  br label %_ZNSt10unique_ptrIN3gmx10IHelpTopicESt14default_deleteIS1_EED2Ev.exit

_ZNSt10unique_ptrIN3gmx10IHelpTopicESt14default_deleteIS1_EED2Ev.exit: ; preds = %9, %_ZNKSt14default_deleteIN3gmx10IHelpTopicEEclEPS1_.exit.i
  ret void

14:                                               ; preds = %2
  %15 = landingpad { ptr, i32 }
          cleanup
  %16 = load ptr, ptr %3, align 8
  %.not.i2 = icmp eq ptr %16, null
  br i1 %.not.i2, label %_ZNSt10unique_ptrIN3gmx10IHelpTopicESt14default_deleteIS1_EED2Ev.exit4, label %_ZNKSt14default_deleteIN3gmx10IHelpTopicEEclEPS1_.exit.i3

_ZNKSt14default_deleteIN3gmx10IHelpTopicEEclEPS1_.exit.i3: ; preds = %14
  %17 = load ptr, ptr %16, align 8
  %18 = getelementptr inbounds i8, ptr %17, i64 8
  %19 = load ptr, ptr %18, align 8
  call void %19(ptr noundef nonnull align 8 dereferenceable(8) %16) #21
  br label %_ZNSt10unique_ptrIN3gmx10IHelpTopicESt14default_deleteIS1_EED2Ev.exit4

_ZNSt10unique_ptrIN3gmx10IHelpTopicESt14default_deleteIS1_EED2Ev.exit4: ; preds = %14, %_ZNKSt14default_deleteIN3gmx10IHelpTopicEEclEPS1_.exit.i3
  resume { ptr, i32 } %15
}